target datalayout = "e-m:e-p270:32:32-p271:32:32-p272:64:64-i64:64-i128:128-f80:128-n8:16:32:64-S128"
target triple = "x86_64-pc-linux-gnu"

%class.DCmdWithParser = type { %class.DCmd.base, %class.DCmdParser }
%class.DCmd.base = type <{ ptr, ptr, i8 }>
%class.DCmdParser = type { ptr, ptr }
%class.GenDCmdArgument.base = type <{ ptr, ptr, ptr, ptr, ptr, ptr, i8, i8, i8 }>
%class.DCmdArgument.96 = type { %class.GenDCmdArgument.base, ptr }
%class.DCmd = type <{ ptr, ptr, i8, [7 x i8] }>
%class.DCmdArgument.100 = type { %class.GenDCmdArgument.base, i64 }
%class.CodeHeapAnalyticsDCmd = type { %class.DCmdWithParser, %class.DCmdArgument.96, %class.DCmdArgument.100 }

@.str.121 = private unnamed_addr constant [49 x i8] c"src/hotspot/share/services/diagnosticCommand.cpp\00", align 1
@.str.122 = private unnamed_addr constant [52 x i8] c"Invalid granularity value %ld. Should be positive.\0A\00", align 1
@_ZN6Symbol11_vm_symbolsE = external global [0 x ptr], align 8

; Function Attrs: mustprogress nounwind uwtable
define linkonce_odr hidden noundef ptr @_ZNK12DCmdArgumentIPcE5valueEv(ptr noundef nonnull align 8 dereferenceable(64) %0) #1 comdat align 2 {
  %2 = alloca ptr, align 8
  store ptr %0, ptr %2, align 8
  %3 = load ptr, ptr %2, align 8
  %4 = getelementptr inbounds %class.DCmdArgument.96, ptr %3, i32 0, i32 1
  %5 = load ptr, ptr %4, align 8
  ret ptr %5
}

; Function Attrs: mustprogress nounwind uwtable
define linkonce_odr hidden noundef ptr @_ZNK4DCmd6outputEv(ptr noundef nonnull align 8 dereferenceable(17) %0) #1 comdat align 2 {
  %2 = alloca ptr, align 8
  store ptr %0, ptr %2, align 8
  %3 = load ptr, ptr %2, align 8
  %4 = getelementptr inbounds %class.DCmd, ptr %3, i32 0, i32 1
  %5 = load ptr, ptr %4, align 8
  ret ptr %5
}

; Function Attrs: mustprogress nounwind uwtable
define linkonce_odr hidden noundef ptr @_ZN9vmSymbols34java_lang_IllegalArgumentExceptionEv() #1 comdat align 2 {
  %1 = load ptr, ptr getelementptr inbounds ([0 x ptr], ptr @_ZN6Symbol11_vm_symbolsE, i64 0, i64 138), align 8
  ret ptr %1
}

; Function Attrs: mustprogress nounwind uwtable
define linkonce_odr hidden noundef i64 @_ZNK12DCmdArgumentIlE5valueEv(ptr noundef nonnull align 8 dereferenceable(64) %0) #1 comdat align 2 {
  %2 = alloca ptr, align 8
  store ptr %0, ptr %2, align 8
  %3 = load ptr, ptr %2, align 8
  %4 = getelementptr inbounds %class.DCmdArgument.100, ptr %3, i32 0, i32 1
  %5 = load i64, ptr %4, align 8
  ret i64 %5
}

; Function Attrs: mustprogress nounwind uwtable
define hidden void @_ZN21CodeHeapAnalyticsDCmd7executeE10DCmdSourceP10JavaThread(ptr noundef nonnull align 8 dereferenceable(168) %0, i32 noundef %1, ptr noundef %2) unnamed_addr #1 align 2 {
  %4 = alloca ptr, align 8
  %5 = alloca i32, align 4
  %6 = alloca ptr, align 8
  %7 = alloca i64, align 8
  store ptr %0, ptr %4, align 8
  store i32 %1, ptr %5, align 4
  store ptr %2, ptr %6, align 8
  %8 = load ptr, ptr %4, align 8
  %9 = getelementptr inbounds %class.CodeHeapAnalyticsDCmd, ptr %8, i32 0, i32 2
  %10 = call noundef i64 @_ZNK12DCmdArgumentIlE5valueEv(ptr noundef nonnull align 8 dereferenceable(64) %9)
  store i64 %10, ptr %7, align 8
  %11 = load i64, ptr %7, align 8
  %12 = icmp slt i64 %11, 1
  br i1 %12, label %13, label %17

13:                                               ; preds = %3
  %14 = load ptr, ptr %6, align 8
  %15 = call noundef ptr @_ZN9vmSymbols34java_lang_IllegalArgumentExceptionEv()
  %16 = load i64, ptr %7, align 8
  call void (ptr, ptr, i32, ptr, ptr, ...) @_ZN10Exceptions6fthrowEP10JavaThreadPKciP6SymbolS3_z(ptr noundef %14, ptr noundef @.str.121, i32 noundef 884, ptr noundef %15, ptr noundef @.str.122, i64 noundef %16)
  br label %22

17:                                               ; preds = %3
  %18 = call noundef ptr @_ZNK4DCmd6outputEv(ptr noundef nonnull align 8 dereferenceable(17) %8)
  %19 = getelementptr inbounds %class.CodeHeapAnalyticsDCmd, ptr %8, i32 0, i32 1
  %20 = call noundef ptr @_ZNK12DCmdArgumentIPcE5valueEv(ptr noundef nonnull align 8 dereferenceable(64) %19)
  %21 = load i64, ptr %7, align 8
  call void @_ZN13CompileBroker14print_heapinfoEP12outputStreamPKcm(ptr noundef %18, ptr noundef %20, i64 noundef %21)
  br label %22

22:                                               ; preds = %17, %13
  ret void
}