; Function Attrs: mustprogress nounwind uwtable
define hidden void @_ZN21CodeHeapAnalyticsDCmd7executeE10DCmdSourceP10JavaThread(ptr nocapture noundef nonnull readonly align 8 dereferenceable(168) %0, i32 %1, ptr noundef %2) unnamed_addr #0 align 2 {
  %4 = getelementptr inbounds i8, ptr %0, i64 160
  %5 = load i64, ptr %4, align 8
  %6 = icmp slt i64 %5, 1
  br i1 %6, label %7, label %9

7:                                                ; preds = %3
  %8 = load ptr, ptr getelementptr inbounds (i8, ptr @_ZN6Symbol11_vm_symbolsE, i64 1104), align 8
  tail call void (ptr, ptr, i32, ptr, ptr, ...) @_ZN10Exceptions6fthrowEP10JavaThreadPKciP6SymbolS3_z(ptr noundef %2, ptr noundef nonnull @.str.121, i32 noundef 884, ptr noundef %8, ptr noundef nonnull @.str.122, i64 noundef %5) #17
  br label %14

9:                                                ; preds = %3
  %10 = getelementptr inbounds i8, ptr %0, i64 8
  %11 = load ptr, ptr %10, align 8
  %12 = getelementptr inbounds i8, ptr %0, i64 96
  %13 = load ptr, ptr %12, align 8
  tail call void @_ZN13CompileBroker14print_heapinfoEP12outputStreamPKcm(ptr noundef %11, ptr noundef %13, i64 noundef %5) #17
  br label %14

14:                                               ; preds = %9, %7
  ret void
}